; Function Attrs: mustprogress nofree norecurse nosync nounwind willreturn memory(read, inaccessiblemem: none) uwtable
define noundef ptr @_ZNK6icu_7716SimpleDateFormat22getNumberFormatByIndexE16UDateFormatField(ptr noundef nonnull readonly align 8 captures(none) dereferenceable(528) %0, i32 noundef %1) local_unnamed_addr #12 align 2 {
  %3 = getelementptr inbounds nuw i8, ptr %0, i64 496
  %4 = load ptr, ptr %3, align 8, !tbaa !22
  %5 = icmp eq ptr %4, null
  br i1 %5, label %11, label %6

6:                                                ; preds = %2
  %7 = zext i32 %1 to i64
  %8 = getelementptr inbounds nuw ptr, ptr %4, i64 %7
  %9 = load ptr, ptr %8, align 8, !tbaa !42
  %10 = icmp eq ptr %9, null
  br i1 %10, label %11, label %13

11:                                               ; preds = %6, %2
  %12 = getelementptr inbounds nuw i8, ptr %0, i64 32
  br label %15

13:                                               ; preds = %6
  %14 = getelementptr inbounds nuw i8, ptr %9, i64 24
  br label %15

15:                                               ; preds = %13, %11
  %.0.in = phi ptr [ %12, %11 ], [ %14, %13 ]
  %.0 = load ptr, ptr %.0.in, align 8, !tbaa !43
  ret ptr %.0
}